target datalayout = "e-m:e-p270:32:32-p271:32:32-p272:64:64-i64:64-i128:128-f80:128-n8:16:32:64-S128"
target triple = "x86_64-pc-linux-gnu"

%struct.archive_write = type { %struct.archive, i32, i64, i64, ptr, i64, ptr, ptr, ptr, ptr, ptr, i32, i32, ptr, ptr, ptr, ptr, ptr, ptr, ptr, ptr, ptr, ptr, ptr, ptr, ptr, ptr }
%struct.archive = type { i32, i32, ptr, i32, ptr, i32, i32, ptr, %struct.archive_string, ptr, i32, i32, ptr, ptr, i64, i64, i64, i8, i64 }
%struct.archive_string = type { ptr, i64, i64 }
%struct.iso9660 = type { i64, i32, ptr, ptr, %struct.archive_string, i64, i32, %struct.archive_string, %struct.archive_string, ptr, ptr, %struct.anon, %struct.anon.0, %struct.archive_rb_tree, %struct.vdd, %struct.vdd, i32, i32, i32, %struct.archive_string, %struct.archive_string, %struct.archive_string, %struct.archive_string, %struct.archive_string, %struct.archive_string, %struct.archive_string, i32, %struct.anon.1, ptr, i32, [65536 x i8], i64, i32, i64, i64, i64, %struct.anon.2, %struct.iso_option }
%struct.anon = type { ptr, ptr }
%struct.anon.0 = type { ptr, ptr }
%struct.archive_rb_tree = type { ptr, ptr }
%struct.vdd = type { ptr, i32, ptr, i32, i32, i32, i32, i32, i32 }
%struct.anon.1 = type { i8, [64 x i8], i32, ptr, i64, i32, i32, i64, i64, %struct.z_stream_s, i32, i64, i32 }
%struct.z_stream_s = type { ptr, i32, i64, ptr, i32, i64, ptr, ptr, ptr, ptr, ptr, i32, i64, i64 }
%struct.anon.2 = type { %struct.archive_string, ptr, %struct.archive_string, ptr, i8, %struct.archive_string, i8, i8, i16, i16 }
%struct.iso_option = type { i32 }

@.str.57 = private unnamed_addr constant [79 x i8] c"Internal Programming error: iso9660:wb_consume() size=%jd, wbuff_remaining=%jd\00", align 1

; Function Attrs: nounwind uwtable
define internal i32 @wb_consume(ptr noundef %0, i64 noundef %1) #0 {
  %3 = alloca i32, align 4
  %4 = alloca ptr, align 8
  %5 = alloca i64, align 8
  %6 = alloca ptr, align 8
  %7 = alloca i32, align 4
  store ptr %0, ptr %4, align 8, !tbaa !9
  store i64 %1, ptr %5, align 8, !tbaa !154
  call void @llvm.lifetime.start.p0(i64 8, ptr %6) #13
  %8 = load ptr, ptr %4, align 8, !tbaa !9
  %9 = getelementptr inbounds nuw %struct.archive_write, ptr %8, i32 0, i32 15
  %10 = load ptr, ptr %9, align 8, !tbaa !120
  store ptr %10, ptr %6, align 8, !tbaa !22
  %11 = load i64, ptr %5, align 8, !tbaa !154
  %12 = load ptr, ptr %6, align 8, !tbaa !22
  %13 = getelementptr inbounds nuw %struct.iso9660, ptr %12, i32 0, i32 31
  %14 = load i64, ptr %13, align 8, !tbaa !53
  %15 = icmp ugt i64 %11, %14
  br i1 %15, label %21, label %16

16:                                               ; preds = %2
  %17 = load ptr, ptr %6, align 8, !tbaa !22
  %18 = getelementptr inbounds nuw %struct.iso9660, ptr %17, i32 0, i32 31
  %19 = load i64, ptr %18, align 8, !tbaa !53
  %20 = icmp eq i64 %19, 0
  br i1 %20, label %21, label %28

21:                                               ; preds = %16, %2
  %22 = load ptr, ptr %4, align 8, !tbaa !9
  %23 = getelementptr inbounds nuw %struct.archive_write, ptr %22, i32 0, i32 0
  %24 = load i64, ptr %5, align 8, !tbaa !154
  %25 = load ptr, ptr %6, align 8, !tbaa !22
  %26 = getelementptr inbounds nuw %struct.iso9660, ptr %25, i32 0, i32 31
  %27 = load i64, ptr %26, align 8, !tbaa !53
  call void (ptr, i32, ptr, ...) @archive_set_error(ptr noundef %23, i32 noundef -1, ptr noundef @.str.57, i64 noundef %24, i64 noundef %27)
  store i32 -30, ptr %3, align 4
  store i32 1, ptr %7, align 4
  br label %42

28:                                               ; preds = %16
  %29 = load i64, ptr %5, align 8, !tbaa !154
  %30 = load ptr, ptr %6, align 8, !tbaa !22
  %31 = getelementptr inbounds nuw %struct.iso9660, ptr %30, i32 0, i32 31
  %32 = load i64, ptr %31, align 8, !tbaa !53
  %33 = sub i64 %32, %29
  store i64 %33, ptr %31, align 8, !tbaa !53
  %34 = load ptr, ptr %6, align 8, !tbaa !22
  %35 = getelementptr inbounds nuw %struct.iso9660, ptr %34, i32 0, i32 31
  %36 = load i64, ptr %35, align 8, !tbaa !53
  %37 = icmp ult i64 %36, 2048
  br i1 %37, label %38, label %41

38:                                               ; preds = %28
  %39 = load ptr, ptr %4, align 8, !tbaa !9
  %40 = call i32 @wb_write_out(ptr noundef %39)
  store i32 %40, ptr %3, align 4
  store i32 1, ptr %7, align 4
  br label %42

41:                                               ; preds = %28
  store i32 0, ptr %3, align 4
  store i32 1, ptr %7, align 4
  br label %42

42:                                               ; preds = %41, %38, %21
  call void @llvm.lifetime.end.p0(i64 8, ptr %6) #13
  %43 = load i32, ptr %3, align 4
  ret i32 %43
}