; Function Attrs: nounwind uwtable
define internal fastcc i32 @wb_consume(ptr noundef %0, i64 noundef %1) unnamed_addr #0 {
  %3 = getelementptr inbounds nuw i8, ptr %0, i64 248
  %4 = load ptr, ptr %3, align 8, !tbaa !69
  %5 = getelementptr inbounds nuw i8, ptr %4, i64 66272
  %6 = load i64, ptr %5, align 8, !tbaa !50
  %7 = icmp ugt i64 %1, %6
  %8 = icmp eq i64 %6, 0
  %or.cond = or i1 %7, %8
  br i1 %or.cond, label %9, label %10

9:                                                ; preds = %2
  tail call void (ptr, i32, ptr, ...) @archive_set_error(ptr noundef nonnull %0, i32 noundef -1, ptr noundef nonnull @.str.57, i64 noundef %1, i64 noundef %6) #23
  br label %15

10:                                               ; preds = %2
  %11 = sub nuw i64 %6, %1
  store i64 %11, ptr %5, align 8, !tbaa !50
  %12 = icmp ult i64 %11, 2048
  br i1 %12, label %13, label %15

13:                                               ; preds = %10
  %14 = tail call fastcc i32 @wb_write_out(ptr noundef nonnull %0)
  br label %15

15:                                               ; preds = %10, %13, %9
  %.0 = phi i32 [ -30, %9 ], [ %14, %13 ], [ 0, %10 ]
  ret i32 %.0
}